target datalayout = "e-m:e-p270:32:32-p271:32:32-p272:64:64-i64:64-i128:128-f80:128-n8:16:32:64-S128"
target triple = "x86_64-pc-linux-gnu"

%struct.TT_CMapRec_ = type { %struct.FT_CMapRec_, ptr, i32 }
%struct.FT_CMapRec_ = type { %struct.FT_CharMapRec_, ptr }
%struct.FT_CharMapRec_ = type { ptr, i32, i16, i16 }
%struct.TT_CMap12Rec_ = type { %struct.TT_CMapRec_, i8, i64, i32, i64, i64 }

; Function Attrs: nounwind uwtable
define internal i32 @tt_cmap12_char_next(ptr noundef %0, ptr noundef %1) #0 {
  %3 = alloca i32, align 4
  %4 = alloca ptr, align 8
  %5 = alloca ptr, align 8
  %6 = alloca ptr, align 8
  %7 = alloca i32, align 4
  store ptr %0, ptr %4, align 8
  store ptr %1, ptr %5, align 8
  %8 = load ptr, ptr %4, align 8
  store ptr %8, ptr %6, align 8
  %9 = load ptr, ptr %5, align 8
  %10 = load i32, ptr %9, align 4
  %11 = zext i32 %10 to i64
  %12 = icmp uge i64 %11, 4294967295
  br i1 %12, label %13, label %14

13:                                               ; preds = %2
  store i32 0, ptr %3, align 4
  br label %51

14:                                               ; preds = %2
  %15 = load ptr, ptr %6, align 8
  %16 = getelementptr inbounds %struct.TT_CMap12Rec_, ptr %15, i32 0, i32 1
  %17 = load i8, ptr %16, align 8
  %18 = zext i8 %17 to i32
  %19 = icmp ne i32 %18, 0
  br i1 %19, label %20, label %45

20:                                               ; preds = %14
  %21 = load ptr, ptr %6, align 8
  %22 = getelementptr inbounds %struct.TT_CMap12Rec_, ptr %21, i32 0, i32 2
  %23 = load i64, ptr %22, align 8
  %24 = load ptr, ptr %5, align 8
  %25 = load i32, ptr %24, align 4
  %26 = zext i32 %25 to i64
  %27 = icmp eq i64 %23, %26
  br i1 %27, label %28, label %45

28:                                               ; preds = %20
  %29 = load ptr, ptr %6, align 8
  call void @tt_cmap12_next(ptr noundef %29)
  %30 = load ptr, ptr %6, align 8
  %31 = getelementptr inbounds %struct.TT_CMap12Rec_, ptr %30, i32 0, i32 1
  %32 = load i8, ptr %31, align 8
  %33 = icmp ne i8 %32, 0
  br i1 %33, label %34, label %43

34:                                               ; preds = %28
  %35 = load ptr, ptr %6, align 8
  %36 = getelementptr inbounds %struct.TT_CMap12Rec_, ptr %35, i32 0, i32 3
  %37 = load i32, ptr %36, align 8
  store i32 %37, ptr %7, align 4
  %38 = load ptr, ptr %6, align 8
  %39 = getelementptr inbounds %struct.TT_CMap12Rec_, ptr %38, i32 0, i32 2
  %40 = load i64, ptr %39, align 8
  %41 = trunc i64 %40 to i32
  %42 = load ptr, ptr %5, align 8
  store i32 %41, ptr %42, align 4
  br label %44

43:                                               ; preds = %28
  store i32 0, ptr %7, align 4
  br label %44

44:                                               ; preds = %43, %34
  br label %49

45:                                               ; preds = %20, %14
  %46 = load ptr, ptr %4, align 8
  %47 = load ptr, ptr %5, align 8
  %48 = call i32 @tt_cmap12_char_map_binary(ptr noundef %46, ptr noundef %47, i8 noundef zeroext 1)
  store i32 %48, ptr %7, align 4
  br label %49

49:                                               ; preds = %45, %44
  %50 = load i32, ptr %7, align 4
  store i32 %50, ptr %3, align 4
  br label %51

51:                                               ; preds = %49, %13
  %52 = load i32, ptr %3, align 4
  ret i32 %52
}