; Function Attrs: nofree norecurse nosync nounwind memory(read, argmem: readwrite, inaccessiblemem: none) uwtable
define internal i32 @tt_cmap12_char_next(ptr nocapture noundef %0, ptr nocapture noundef %1) #3 {
  %3 = load i32, ptr %1, align 4
  %4 = zext i32 %3 to i64
  %5 = icmp eq i32 %3, -1
  br i1 %5, label %22, label %6

6:                                                ; preds = %2
  %7 = getelementptr inbounds i8, ptr %0, i64 40
  %8 = load i8, ptr %7, align 8
  %.not = icmp eq i8 %8, 0
  br i1 %.not, label %20, label %9

9:                                                ; preds = %6
  %10 = getelementptr inbounds i8, ptr %0, i64 48
  %11 = load i64, ptr %10, align 8
  %12 = icmp eq i64 %11, %4
  br i1 %12, label %13, label %20

13:                                               ; preds = %9
  tail call fastcc void @tt_cmap12_next(ptr noundef nonnull %0)
  %14 = load i8, ptr %7, align 8
  %.not15 = icmp eq i8 %14, 0
  br i1 %.not15, label %22, label %15

15:                                               ; preds = %13
  %16 = getelementptr inbounds i8, ptr %0, i64 56
  %17 = load i32, ptr %16, align 8
  %18 = load i64, ptr %10, align 8
  %19 = trunc i64 %18 to i32
  store i32 %19, ptr %1, align 4
  br label %22

20:                                               ; preds = %9, %6
  %21 = tail call fastcc i32 @tt_cmap12_char_map_binary(ptr noundef nonnull %0, ptr noundef nonnull %1, i8 noundef zeroext 1)
  br label %22

22:                                               ; preds = %20, %15, %13, %2
  %.013 = phi i32 [ 0, %2 ], [ %17, %15 ], [ %21, %20 ], [ 0, %13 ]
  ret i32 %.013
}